target datalayout = "e-m:e-p270:32:32-p271:32:32-p272:64:64-i64:64-i128:128-f80:128-n8:16:32:64-S128"
target triple = "x86_64-pc-linux-gnu"

%class.aiMatrix4x4t = type { float, float, float, float, float, float, float, float, float, float, float, float, float, float, float, float }
%class.aiQuaterniont = type { float, float, float, float }
%class.aiMatrix3x3t = type { float, float, float, float, float, float, float, float, float }

; Function Attrs: inlinehint mustprogress nounwind uwtable
define linkonce_odr noundef float @_ZSt4sqrtf(float noundef %0) #11 comdat {
  %2 = alloca float, align 4
  store float %0, ptr %2, align 4
  %3 = load float, ptr %2, align 4
  %4 = call float @sqrtf(float noundef %3) #25
  ret float %4
}

; Function Attrs: inlinehint mustprogress nounwind uwtable
define linkonce_odr hidden void @_ZN13aiQuaterniontIfEC2ERK12aiMatrix3x3tIfE(ptr noundef nonnull align 4 dereferenceable(16) %0, ptr noundef nonnull align 4 dereferenceable(36) %1) unnamed_addr #11 comdat align 2 {
  %3 = alloca ptr, align 8
  %4 = alloca ptr, align 8
  %5 = alloca float, align 4
  %6 = alloca float, align 4
  %7 = alloca float, align 4
  %8 = alloca float, align 4
  %9 = alloca float, align 4
  store ptr %0, ptr %3, align 8
  store ptr %1, ptr %4, align 8
  %10 = load ptr, ptr %3, align 8
  call void @llvm.lifetime.start.p0(i64 4, ptr %5) #25
  %11 = load ptr, ptr %4, align 8
  %12 = getelementptr inbounds nuw %class.aiMatrix3x3t, ptr %11, i32 0, i32 0
  %13 = load float, ptr %12, align 4
  %14 = load ptr, ptr %4, align 8
  %15 = getelementptr inbounds nuw %class.aiMatrix3x3t, ptr %14, i32 0, i32 4
  %16 = load float, ptr %15, align 4
  %17 = fadd float %13, %16
  %18 = load ptr, ptr %4, align 8
  %19 = getelementptr inbounds nuw %class.aiMatrix3x3t, ptr %18, i32 0, i32 8
  %20 = load float, ptr %19, align 4
  %21 = fadd float %17, %20
  store float %21, ptr %5, align 4
  %22 = load float, ptr %5, align 4
  %23 = fcmp ogt float %22, 0.000000e+00
  br i1 %23, label %24, label %62

24:                                               ; preds = %2
  call void @llvm.lifetime.start.p0(i64 4, ptr %6) #25
  %25 = load float, ptr %5, align 4
  %26 = fadd float 1.000000e+00, %25
  %27 = call noundef float @_ZSt4sqrtf(float noundef %26)
  %28 = fmul float %27, 2.000000e+00
  store float %28, ptr %6, align 4
  %29 = load ptr, ptr %4, align 8
  %30 = getelementptr inbounds nuw %class.aiMatrix3x3t, ptr %29, i32 0, i32 7
  %31 = load float, ptr %30, align 4
  %32 = load ptr, ptr %4, align 8
  %33 = getelementptr inbounds nuw %class.aiMatrix3x3t, ptr %32, i32 0, i32 5
  %34 = load float, ptr %33, align 4
  %35 = fsub float %31, %34
  %36 = load float, ptr %6, align 4
  %37 = fdiv float %35, %36
  %38 = getelementptr inbounds nuw %class.aiQuaterniont, ptr %10, i32 0, i32 1
  store float %37, ptr %38, align 4
  %39 = load ptr, ptr %4, align 8
  %40 = getelementptr inbounds nuw %class.aiMatrix3x3t, ptr %39, i32 0, i32 2
  %41 = load float, ptr %40, align 4
  %42 = load ptr, ptr %4, align 8
  %43 = getelementptr inbounds nuw %class.aiMatrix3x3t, ptr %42, i32 0, i32 6
  %44 = load float, ptr %43, align 4
  %45 = fsub float %41, %44
  %46 = load float, ptr %6, align 4
  %47 = fdiv float %45, %46
  %48 = getelementptr inbounds nuw %class.aiQuaterniont, ptr %10, i32 0, i32 2
  store float %47, ptr %48, align 4
  %49 = load ptr, ptr %4, align 8
  %50 = getelementptr inbounds nuw %class.aiMatrix3x3t, ptr %49, i32 0, i32 3
  %51 = load float, ptr %50, align 4
  %52 = load ptr, ptr %4, align 8
  %53 = getelementptr inbounds nuw %class.aiMatrix3x3t, ptr %52, i32 0, i32 1
  %54 = load float, ptr %53, align 4
  %55 = fsub float %51, %54
  %56 = load float, ptr %6, align 4
  %57 = fdiv float %55, %56
  %58 = getelementptr inbounds nuw %class.aiQuaterniont, ptr %10, i32 0, i32 3
  store float %57, ptr %58, align 4
  %59 = load float, ptr %6, align 4
  %60 = fmul float 2.500000e-01, %59
  %61 = getelementptr inbounds nuw %class.aiQuaterniont, ptr %10, i32 0, i32 0
  store float %60, ptr %61, align 4
  call void @llvm.lifetime.end.p0(i64 4, ptr %6) #25
  br label %232

62:                                               ; preds = %2
  %63 = load ptr, ptr %4, align 8
  %64 = getelementptr inbounds nuw %class.aiMatrix3x3t, ptr %63, i32 0, i32 0
  %65 = load float, ptr %64, align 4
  %66 = load ptr, ptr %4, align 8
  %67 = getelementptr inbounds nuw %class.aiMatrix3x3t, ptr %66, i32 0, i32 4
  %68 = load float, ptr %67, align 4
  %69 = fcmp ogt float %65, %68
  br i1 %69, label %70, label %126

70:                                               ; preds = %62
  %71 = load ptr, ptr %4, align 8
  %72 = getelementptr inbounds nuw %class.aiMatrix3x3t, ptr %71, i32 0, i32 0
  %73 = load float, ptr %72, align 4
  %74 = load ptr, ptr %4, align 8
  %75 = getelementptr inbounds nuw %class.aiMatrix3x3t, ptr %74, i32 0, i32 8
  %76 = load float, ptr %75, align 4
  %77 = fcmp ogt float %73, %76
  br i1 %77, label %78, label %126

78:                                               ; preds = %70
  call void @llvm.lifetime.start.p0(i64 4, ptr %7) #25
  %79 = load ptr, ptr %4, align 8
  %80 = getelementptr inbounds nuw %class.aiMatrix3x3t, ptr %79, i32 0, i32 0
  %81 = load float, ptr %80, align 4
  %82 = fadd float 1.000000e+00, %81
  %83 = load ptr, ptr %4, align 8
  %84 = getelementptr inbounds nuw %class.aiMatrix3x3t, ptr %83, i32 0, i32 4
  %85 = load float, ptr %84, align 4
  %86 = fsub float %82, %85
  %87 = load ptr, ptr %4, align 8
  %88 = getelementptr inbounds nuw %class.aiMatrix3x3t, ptr %87, i32 0, i32 8
  %89 = load float, ptr %88, align 4
  %90 = fsub float %86, %89
  %91 = call noundef float @_ZSt4sqrtf(float noundef %90)
  %92 = fmul float %91, 2.000000e+00
  store float %92, ptr %7, align 4
  %93 = load float, ptr %7, align 4
  %94 = fmul float 2.500000e-01, %93
  %95 = getelementptr inbounds nuw %class.aiQuaterniont, ptr %10, i32 0, i32 1
  store float %94, ptr %95, align 4
  %96 = load ptr, ptr %4, align 8
  %97 = getelementptr inbounds nuw %class.aiMatrix3x3t, ptr %96, i32 0, i32 3
  %98 = load float, ptr %97, align 4
  %99 = load ptr, ptr %4, align 8
  %100 = getelementptr inbounds nuw %class.aiMatrix3x3t, ptr %99, i32 0, i32 1
  %101 = load float, ptr %100, align 4
  %102 = fadd float %98, %101
  %103 = load float, ptr %7, align 4
  %104 = fdiv float %102, %103
  %105 = getelementptr inbounds nuw %class.aiQuaterniont, ptr %10, i32 0, i32 2
  store float %104, ptr %105, align 4
  %106 = load ptr, ptr %4, align 8
  %107 = getelementptr inbounds nuw %class.aiMatrix3x3t, ptr %106, i32 0, i32 2
  %108 = load float, ptr %107, align 4
  %109 = load ptr, ptr %4, align 8
  %110 = getelementptr inbounds nuw %class.aiMatrix3x3t, ptr %109, i32 0, i32 6
  %111 = load float, ptr %110, align 4
  %112 = fadd float %108, %111
  %113 = load float, ptr %7, align 4
  %114 = fdiv float %112, %113
  %115 = getelementptr inbounds nuw %class.aiQuaterniont, ptr %10, i32 0, i32 3
  store float %114, ptr %115, align 4
  %116 = load ptr, ptr %4, align 8
  %117 = getelementptr inbounds nuw %class.aiMatrix3x3t, ptr %116, i32 0, i32 7
  %118 = load float, ptr %117, align 4
  %119 = load ptr, ptr %4, align 8
  %120 = getelementptr inbounds nuw %class.aiMatrix3x3t, ptr %119, i32 0, i32 5
  %121 = load float, ptr %120, align 4
  %122 = fsub float %118, %121
  %123 = load float, ptr %7, align 4
  %124 = fdiv float %122, %123
  %125 = getelementptr inbounds nuw %class.aiQuaterniont, ptr %10, i32 0, i32 0
  store float %124, ptr %125, align 4
  call void @llvm.lifetime.end.p0(i64 4, ptr %7) #25
  br label %231

126:                                              ; preds = %70, %62
  %127 = load ptr, ptr %4, align 8
  %128 = getelementptr inbounds nuw %class.aiMatrix3x3t, ptr %127, i32 0, i32 4
  %129 = load float, ptr %128, align 4
  %130 = load ptr, ptr %4, align 8
  %131 = getelementptr inbounds nuw %class.aiMatrix3x3t, ptr %130, i32 0, i32 8
  %132 = load float, ptr %131, align 4
  %133 = fcmp ogt float %129, %132
  br i1 %133, label %134, label %182

134:                                              ; preds = %126
  call void @llvm.lifetime.start.p0(i64 4, ptr %8) #25
  %135 = load ptr, ptr %4, align 8
  %136 = getelementptr inbounds nuw %class.aiMatrix3x3t, ptr %135, i32 0, i32 4
  %137 = load float, ptr %136, align 4
  %138 = fadd float 1.000000e+00, %137
  %139 = load ptr, ptr %4, align 8
  %140 = getelementptr inbounds nuw %class.aiMatrix3x3t, ptr %139, i32 0, i32 0
  %141 = load float, ptr %140, align 4
  %142 = fsub float %138, %141
  %143 = load ptr, ptr %4, align 8
  %144 = getelementptr inbounds nuw %class.aiMatrix3x3t, ptr %143, i32 0, i32 8
  %145 = load float, ptr %144, align 4
  %146 = fsub float %142, %145
  %147 = call noundef float @_ZSt4sqrtf(float noundef %146)
  %148 = fmul float %147, 2.000000e+00
  store float %148, ptr %8, align 4
  %149 = load ptr, ptr %4, align 8
  %150 = getelementptr inbounds nuw %class.aiMatrix3x3t, ptr %149, i32 0, i32 3
  %151 = load float, ptr %150, align 4
  %152 = load ptr, ptr %4, align 8
  %153 = getelementptr inbounds nuw %class.aiMatrix3x3t, ptr %152, i32 0, i32 1
  %154 = load float, ptr %153, align 4
  %155 = fadd float %151, %154
  %156 = load float, ptr %8, align 4
  %157 = fdiv float %155, %156
  %158 = getelementptr inbounds nuw %class.aiQuaterniont, ptr %10, i32 0, i32 1
  store float %157, ptr %158, align 4
  %159 = load float, ptr %8, align 4
  %160 = fmul float 2.500000e-01, %159
  %161 = getelementptr inbounds nuw %class.aiQuaterniont, ptr %10, i32 0, i32 2
  store float %160, ptr %161, align 4
  %162 = load ptr, ptr %4, align 8
  %163 = getelementptr inbounds nuw %class.aiMatrix3x3t, ptr %162, i32 0, i32 7
  %164 = load float, ptr %163, align 4
  %165 = load ptr, ptr %4, align 8
  %166 = getelementptr inbounds nuw %class.aiMatrix3x3t, ptr %165, i32 0, i32 5
  %167 = load float, ptr %166, align 4
  %168 = fadd float %164, %167
  %169 = load float, ptr %8, align 4
  %170 = fdiv float %168, %169
  %171 = getelementptr inbounds nuw %class.aiQuaterniont, ptr %10, i32 0, i32 3
  store float %170, ptr %171, align 4
  %172 = load ptr, ptr %4, align 8
  %173 = getelementptr inbounds nuw %class.aiMatrix3x3t, ptr %172, i32 0, i32 2
  %174 = load float, ptr %173, align 4
  %175 = load ptr, ptr %4, align 8
  %176 = getelementptr inbounds nuw %class.aiMatrix3x3t, ptr %175, i32 0, i32 6
  %177 = load float, ptr %176, align 4
  %178 = fsub float %174, %177
  %179 = load float, ptr %8, align 4
  %180 = fdiv float %178, %179
  %181 = getelementptr inbounds nuw %class.aiQuaterniont, ptr %10, i32 0, i32 0
  store float %180, ptr %181, align 4
  call void @llvm.lifetime.end.p0(i64 4, ptr %8) #25
  br label %230

182:                                              ; preds = %126
  call void @llvm.lifetime.start.p0(i64 4, ptr %9) #25
  %183 = load ptr, ptr %4, align 8
  %184 = getelementptr inbounds nuw %class.aiMatrix3x3t, ptr %183, i32 0, i32 8
  %185 = load float, ptr %184, align 4
  %186 = fadd float 1.000000e+00, %185
  %187 = load ptr, ptr %4, align 8
  %188 = getelementptr inbounds nuw %class.aiMatrix3x3t, ptr %187, i32 0, i32 0
  %189 = load float, ptr %188, align 4
  %190 = fsub float %186, %189
  %191 = load ptr, ptr %4, align 8
  %192 = getelementptr inbounds nuw %class.aiMatrix3x3t, ptr %191, i32 0, i32 4
  %193 = load float, ptr %192, align 4
  %194 = fsub float %190, %193
  %195 = call noundef float @_ZSt4sqrtf(float noundef %194)
  %196 = fmul float %195, 2.000000e+00
  store float %196, ptr %9, align 4
  %197 = load ptr, ptr %4, align 8
  %198 = getelementptr inbounds nuw %class.aiMatrix3x3t, ptr %197, i32 0, i32 2
  %199 = load float, ptr %198, align 4
  %200 = load ptr, ptr %4, align 8
  %201 = getelementptr inbounds nuw %class.aiMatrix3x3t, ptr %200, i32 0, i32 6
  %202 = load float, ptr %201, align 4
  %203 = fadd float %199, %202
  %204 = load float, ptr %9, align 4
  %205 = fdiv float %203, %204
  %206 = getelementptr inbounds nuw %class.aiQuaterniont, ptr %10, i32 0, i32 1
  store float %205, ptr %206, align 4
  %207 = load ptr, ptr %4, align 8
  %208 = getelementptr inbounds nuw %class.aiMatrix3x3t, ptr %207, i32 0, i32 7
  %209 = load float, ptr %208, align 4
  %210 = load ptr, ptr %4, align 8
  %211 = getelementptr inbounds nuw %class.aiMatrix3x3t, ptr %210, i32 0, i32 5
  %212 = load float, ptr %211, align 4
  %213 = fadd float %209, %212
  %214 = load float, ptr %9, align 4
  %215 = fdiv float %213, %214
  %216 = getelementptr inbounds nuw %class.aiQuaterniont, ptr %10, i32 0, i32 2
  store float %215, ptr %216, align 4
  %217 = load float, ptr %9, align 4
  %218 = fmul float 2.500000e-01, %217
  %219 = getelementptr inbounds nuw %class.aiQuaterniont, ptr %10, i32 0, i32 3
  store float %218, ptr %219, align 4
  %220 = load ptr, ptr %4, align 8
  %221 = getelementptr inbounds nuw %class.aiMatrix3x3t, ptr %220, i32 0, i32 3
  %222 = load float, ptr %221, align 4
  %223 = load ptr, ptr %4, align 8
  %224 = getelementptr inbounds nuw %class.aiMatrix3x3t, ptr %223, i32 0, i32 1
  %225 = load float, ptr %224, align 4
  %226 = fsub float %222, %225
  %227 = load float, ptr %9, align 4
  %228 = fdiv float %226, %227
  %229 = getelementptr inbounds nuw %class.aiQuaterniont, ptr %10, i32 0, i32 0
  store float %228, ptr %229, align 4
  call void @llvm.lifetime.end.p0(i64 4, ptr %9) #25
  br label %230

230:                                              ; preds = %182, %134
  br label %231

231:                                              ; preds = %230, %78
  br label %232

232:                                              ; preds = %231, %24
  call void @llvm.lifetime.end.p0(i64 4, ptr %5) #25
  ret void
}

; Function Attrs: inlinehint mustprogress nounwind uwtable
define linkonce_odr hidden void @_ZN12aiMatrix3x3tIfEC2ERK12aiMatrix4x4tIfE(ptr noundef nonnull align 4 dereferenceable(36) %0, ptr noundef nonnull align 4 dereferenceable(64) %1) unnamed_addr #11 comdat align 2 {
  %3 = alloca ptr, align 8
  %4 = alloca ptr, align 8
  store ptr %0, ptr %3, align 8
  store ptr %1, ptr %4, align 8
  %5 = load ptr, ptr %3, align 8
  %6 = load ptr, ptr %4, align 8
  %7 = getelementptr inbounds nuw %class.aiMatrix4x4t, ptr %6, i32 0, i32 0
  %8 = load float, ptr %7, align 4
  %9 = getelementptr inbounds nuw %class.aiMatrix3x3t, ptr %5, i32 0, i32 0
  store float %8, ptr %9, align 4
  %10 = load ptr, ptr %4, align 8
  %11 = getelementptr inbounds nuw %class.aiMatrix4x4t, ptr %10, i32 0, i32 1
  %12 = load float, ptr %11, align 4
  %13 = getelementptr inbounds nuw %class.aiMatrix3x3t, ptr %5, i32 0, i32 1
  store float %12, ptr %13, align 4
  %14 = load ptr, ptr %4, align 8
  %15 = getelementptr inbounds nuw %class.aiMatrix4x4t, ptr %14, i32 0, i32 2
  %16 = load float, ptr %15, align 4
  %17 = getelementptr inbounds nuw %class.aiMatrix3x3t, ptr %5, i32 0, i32 2
  store float %16, ptr %17, align 4
  %18 = load ptr, ptr %4, align 8
  %19 = getelementptr inbounds nuw %class.aiMatrix4x4t, ptr %18, i32 0, i32 4
  %20 = load float, ptr %19, align 4
  %21 = getelementptr inbounds nuw %class.aiMatrix3x3t, ptr %5, i32 0, i32 3
  store float %20, ptr %21, align 4
  %22 = load ptr, ptr %4, align 8
  %23 = getelementptr inbounds nuw %class.aiMatrix4x4t, ptr %22, i32 0, i32 5
  %24 = load float, ptr %23, align 4
  %25 = getelementptr inbounds nuw %class.aiMatrix3x3t, ptr %5, i32 0, i32 4
  store float %24, ptr %25, align 4
  %26 = load ptr, ptr %4, align 8
  %27 = getelementptr inbounds nuw %class.aiMatrix4x4t, ptr %26, i32 0, i32 6
  %28 = load float, ptr %27, align 4
  %29 = getelementptr inbounds nuw %class.aiMatrix3x3t, ptr %5, i32 0, i32 5
  store float %28, ptr %29, align 4
  %30 = load ptr, ptr %4, align 8
  %31 = getelementptr inbounds nuw %class.aiMatrix4x4t, ptr %30, i32 0, i32 8
  %32 = load float, ptr %31, align 4
  %33 = getelementptr inbounds nuw %class.aiMatrix3x3t, ptr %5, i32 0, i32 6
  store float %32, ptr %33, align 4
  %34 = load ptr, ptr %4, align 8
  %35 = getelementptr inbounds nuw %class.aiMatrix4x4t, ptr %34, i32 0, i32 9
  %36 = load float, ptr %35, align 4
  %37 = getelementptr inbounds nuw %class.aiMatrix3x3t, ptr %5, i32 0, i32 7
  store float %36, ptr %37, align 4
  %38 = load ptr, ptr %4, align 8
  %39 = getelementptr inbounds nuw %class.aiMatrix4x4t, ptr %38, i32 0, i32 10
  %40 = load float, ptr %39, align 4
  %41 = getelementptr inbounds nuw %class.aiMatrix3x3t, ptr %5, i32 0, i32 8
  store float %40, ptr %41, align 4
  ret void
}

; Function Attrs: mustprogress nounwind uwtable
define linkonce_odr hidden void @_ZN12aiMatrix4x4tIfEC2Ev(ptr noundef nonnull align 4 dereferenceable(64) %0) unnamed_addr #3 comdat align 2 {
  %2 = alloca ptr, align 8
  store ptr %0, ptr %2, align 8
  %3 = load ptr, ptr %2, align 8
  %4 = getelementptr inbounds nuw %class.aiMatrix4x4t, ptr %3, i32 0, i32 0
  store float 1.000000e+00, ptr %4, align 4
  %5 = getelementptr inbounds nuw %class.aiMatrix4x4t, ptr %3, i32 0, i32 1
  store float 0.000000e+00, ptr %5, align 4
  %6 = getelementptr inbounds nuw %class.aiMatrix4x4t, ptr %3, i32 0, i32 2
  store float 0.000000e+00, ptr %6, align 4
  %7 = getelementptr inbounds nuw %class.aiMatrix4x4t, ptr %3, i32 0, i32 3
  store float 0.000000e+00, ptr %7, align 4
  %8 = getelementptr inbounds nuw %class.aiMatrix4x4t, ptr %3, i32 0, i32 4
  store float 0.000000e+00, ptr %8, align 4
  %9 = getelementptr inbounds nuw %class.aiMatrix4x4t, ptr %3, i32 0, i32 5
  store float 1.000000e+00, ptr %9, align 4
  %10 = getelementptr inbounds nuw %class.aiMatrix4x4t, ptr %3, i32 0, i32 6
  store float 0.000000e+00, ptr %10, align 4
  %11 = getelementptr inbounds nuw %class.aiMatrix4x4t, ptr %3, i32 0, i32 7
  store float 0.000000e+00, ptr %11, align 4
  %12 = getelementptr inbounds nuw %class.aiMatrix4x4t, ptr %3, i32 0, i32 8
  store float 0.000000e+00, ptr %12, align 4
  %13 = getelementptr inbounds nuw %class.aiMatrix4x4t, ptr %3, i32 0, i32 9
  store float 0.000000e+00, ptr %13, align 4
  %14 = getelementptr inbounds nuw %class.aiMatrix4x4t, ptr %3, i32 0, i32 10
  store float 1.000000e+00, ptr %14, align 4
  %15 = getelementptr inbounds nuw %class.aiMatrix4x4t, ptr %3, i32 0, i32 11
  store float 0.000000e+00, ptr %15, align 4
  %16 = getelementptr inbounds nuw %class.aiMatrix4x4t, ptr %3, i32 0, i32 12
  store float 0.000000e+00, ptr %16, align 4
  %17 = getelementptr inbounds nuw %class.aiMatrix4x4t, ptr %3, i32 0, i32 13
  store float 0.000000e+00, ptr %17, align 4
  %18 = getelementptr inbounds nuw %class.aiMatrix4x4t, ptr %3, i32 0, i32 14
  store float 0.000000e+00, ptr %18, align 4
  %19 = getelementptr inbounds nuw %class.aiMatrix4x4t, ptr %3, i32 0, i32 15
  store float 1.000000e+00, ptr %19, align 4
  ret void
}

; Function Attrs: mustprogress uwtable
define hidden { <2 x float>, <2 x float> } @_ZN6Assimp3FBX12FBXConverter17EulerToQuaternionERK10aiVector3tIfENS0_5Model8RotOrderE(ptr noundef nonnull align 8 dereferenceable(489) %0, ptr noundef nonnull align 4 dereferenceable(12) %1, i32 noundef %2) #1 align 2 {
  %4 = alloca %class.aiQuaterniont, align 4
  %5 = alloca ptr, align 8
  %6 = alloca ptr, align 8
  %7 = alloca i32, align 4
  %8 = alloca %class.aiMatrix4x4t, align 4
  %9 = alloca %class.aiMatrix3x3t, align 4
  store ptr %0, ptr %5, align 8
  store ptr %1, ptr %6, align 8
  store i32 %2, ptr %7, align 4
  %10 = load ptr, ptr %5, align 8
  call void @llvm.lifetime.start.p0(i64 64, ptr %8) #25
  call void @_ZN12aiMatrix4x4tIfEC2Ev(ptr noundef nonnull align 4 dereferenceable(64) %8) #25
  %11 = load i32, ptr %7, align 4
  %12 = load ptr, ptr %6, align 8
  call void @_ZN6Assimp3FBX12FBXConverter17GetRotationMatrixENS0_5Model8RotOrderERK10aiVector3tIfER12aiMatrix4x4tIfE(ptr noundef nonnull align 8 dereferenceable(489) %10, i32 noundef %11, ptr noundef nonnull align 4 dereferenceable(12) %12, ptr noundef nonnull align 4 dereferenceable(64) %8)
  call void @llvm.lifetime.start.p0(i64 36, ptr %9) #25
  call void @_ZN12aiMatrix3x3tIfEC2ERK12aiMatrix4x4tIfE(ptr noundef nonnull align 4 dereferenceable(36) %9, ptr noundef nonnull align 4 dereferenceable(64) %8)
  call void @_ZN13aiQuaterniontIfEC2ERK12aiMatrix3x3tIfE(ptr noundef nonnull align 4 dereferenceable(16) %4, ptr noundef nonnull align 4 dereferenceable(36) %9)
  call void @llvm.lifetime.end.p0(i64 36, ptr %9) #25
  call void @llvm.lifetime.end.p0(i64 64, ptr %8) #25
  %13 = load { <2 x float>, <2 x float> }, ptr %4, align 4
  ret { <2 x float>, <2 x float> } %13
}