; Function Attrs: mustprogress uwtable
define hidden { <2 x float>, <2 x float> } @_ZN6Assimp3FBX12FBXConverter17EulerToQuaternionERK10aiVector3tIfENS0_5Model8RotOrderE(ptr noundef nonnull readnone align 8 captures(none) dereferenceable(489) %0, ptr noundef nonnull readonly align 4 captures(none) dereferenceable(12) %1, i32 noundef %2) local_unnamed_addr #0 align 2 {
  %4 = alloca %class.aiMatrix4x4t, align 4
  call void @llvm.lifetime.start.p0(i64 64, ptr nonnull %4) #28
  %5 = getelementptr inbounds nuw i8, ptr %4, i64 4
  %6 = getelementptr inbounds nuw i8, ptr %4, i64 20
  %7 = getelementptr inbounds nuw i8, ptr %4, i64 24
  %8 = getelementptr inbounds nuw i8, ptr %4, i64 40
  call void @_ZN6Assimp3FBX12FBXConverter17GetRotationMatrixENS0_5Model8RotOrderERK10aiVector3tIfER12aiMatrix4x4tIfE(ptr nonnull align 8 poison, i32 noundef %2, ptr noundef nonnull align 4 dereferenceable(12) %1, ptr noundef nonnull align 4 dereferenceable(64) %4)
  %9 = load float, ptr %4, align 4
  %10 = load float, ptr %5, align 4
  %11 = getelementptr inbounds nuw i8, ptr %4, i64 8
  %12 = load float, ptr %11, align 4
  %13 = getelementptr inbounds nuw i8, ptr %4, i64 16
  %14 = load float, ptr %13, align 4
  %15 = load float, ptr %6, align 4
  %16 = load float, ptr %7, align 4
  %17 = getelementptr inbounds nuw i8, ptr %4, i64 32
  %18 = load float, ptr %17, align 4
  %19 = getelementptr inbounds nuw i8, ptr %4, i64 36
  %20 = load float, ptr %19, align 4
  %21 = load float, ptr %8, align 4
  %22 = fadd float %9, %15
  %23 = fadd float %22, %21
  %24 = fcmp ogt float %23, 0.000000e+00
  br i1 %24, label %25, label %36

25:                                               ; preds = %3
  %26 = fadd float %23, 1.000000e+00
  %27 = tail call noundef float @sqrtf(float noundef %26) #28
  %28 = fmul float %27, 2.000000e+00
  %29 = fsub float %20, %16
  %30 = fdiv float %29, %28
  %.sroa.020.4.vec.insert27 = insertelement <2 x float> <float undef, float poison>, float %30, i64 1
  %31 = fsub float %12, %18
  %32 = fdiv float %31, %28
  %.sroa.6.8.vec.insert34 = insertelement <2 x float> poison, float %32, i64 0
  %33 = fsub float %14, %10
  %34 = fdiv float %33, %28
  %.sroa.6.12.vec.insert40 = insertelement <2 x float> %.sroa.6.8.vec.insert34, float %34, i64 1
  %35 = fmul float %28, 2.500000e-01
  br label %_ZN13aiQuaterniontIfEC2ERK12aiMatrix3x3tIfE.exit

36:                                               ; preds = %3
  %37 = fcmp ogt float %9, %15
  %38 = fcmp ogt float %9, %21
  %or.cond.i = and i1 %37, %38
  br i1 %or.cond.i, label %39, label %52

39:                                               ; preds = %36
  %40 = fadd float %9, 1.000000e+00
  %41 = fsub float %40, %15
  %42 = fsub float %41, %21
  %43 = tail call noundef float @sqrtf(float noundef %42) #28
  %44 = fmul float %43, 2.000000e+00
  %45 = fmul float %44, 2.500000e-01
  %.sroa.020.4.vec.insert25 = insertelement <2 x float> <float undef, float poison>, float %45, i64 1
  %46 = fadd float %10, %14
  %47 = fdiv float %46, %44
  %.sroa.6.8.vec.insert32 = insertelement <2 x float> poison, float %47, i64 0
  %48 = fadd float %12, %18
  %49 = fdiv float %48, %44
  %.sroa.6.12.vec.insert38 = insertelement <2 x float> %.sroa.6.8.vec.insert32, float %49, i64 1
  %50 = fsub float %20, %16
  %51 = fdiv float %50, %44
  br label %_ZN13aiQuaterniontIfEC2ERK12aiMatrix3x3tIfE.exit

52:                                               ; preds = %36
  %53 = fcmp ogt float %15, %21
  br i1 %53, label %54, label %67

54:                                               ; preds = %52
  %55 = fadd float %15, 1.000000e+00
  %56 = fsub float %55, %9
  %57 = fsub float %56, %21
  %58 = tail call noundef float @sqrtf(float noundef %57) #28
  %59 = fmul float %58, 2.000000e+00
  %60 = fadd float %10, %14
  %61 = fdiv float %60, %59
  %.sroa.020.4.vec.insert23 = insertelement <2 x float> <float undef, float poison>, float %61, i64 1
  %62 = fmul float %59, 2.500000e-01
  %.sroa.6.8.vec.insert30 = insertelement <2 x float> poison, float %62, i64 0
  %63 = fadd float %16, %20
  %64 = fdiv float %63, %59
  %.sroa.6.12.vec.insert36 = insertelement <2 x float> %.sroa.6.8.vec.insert30, float %64, i64 1
  %65 = fsub float %12, %18
  %66 = fdiv float %65, %59
  br label %_ZN13aiQuaterniontIfEC2ERK12aiMatrix3x3tIfE.exit

67:                                               ; preds = %52
  %68 = fadd float %21, 1.000000e+00
  %69 = fsub float %68, %9
  %70 = fsub float %69, %15
  %71 = tail call noundef float @sqrtf(float noundef %70) #28
  %72 = fmul float %71, 2.000000e+00
  %73 = fadd float %12, %18
  %74 = fdiv float %73, %72
  %.sroa.020.4.vec.insert = insertelement <2 x float> <float undef, float poison>, float %74, i64 1
  %75 = fadd float %16, %20
  %76 = fdiv float %75, %72
  %.sroa.6.8.vec.insert = insertelement <2 x float> poison, float %76, i64 0
  %77 = fmul float %72, 2.500000e-01
  %.sroa.6.12.vec.insert = insertelement <2 x float> %.sroa.6.8.vec.insert, float %77, i64 1
  %78 = fsub float %14, %10
  %79 = fdiv float %78, %72
  br label %_ZN13aiQuaterniontIfEC2ERK12aiMatrix3x3tIfE.exit

_ZN13aiQuaterniontIfEC2ERK12aiMatrix3x3tIfE.exit: ; preds = %25, %39, %54, %67
  %.sroa.020.0 = phi <2 x float> [ %.sroa.020.4.vec.insert27, %25 ], [ %.sroa.020.4.vec.insert25, %39 ], [ %.sroa.020.4.vec.insert23, %54 ], [ %.sroa.020.4.vec.insert, %67 ]
  %.sroa.6.0 = phi <2 x float> [ %.sroa.6.12.vec.insert40, %25 ], [ %.sroa.6.12.vec.insert38, %39 ], [ %.sroa.6.12.vec.insert36, %54 ], [ %.sroa.6.12.vec.insert, %67 ]
  %.sink.i = phi float [ %35, %25 ], [ %51, %39 ], [ %66, %54 ], [ %79, %67 ]
  %.sroa.020.0.vec.insert = insertelement <2 x float> %.sroa.020.0, float %.sink.i, i64 0
  call void @llvm.lifetime.end.p0(i64 64, ptr nonnull %4) #28
  %.fca.0.insert = insertvalue { <2 x float>, <2 x float> } poison, <2 x float> %.sroa.020.0.vec.insert, 0
  %.fca.1.insert = insertvalue { <2 x float>, <2 x float> } %.fca.0.insert, <2 x float> %.sroa.6.0, 1
  ret { <2 x float>, <2 x float> } %.fca.1.insert
}